target datalayout = "e-m:e-p270:32:32-p271:32:32-p272:64:64-i64:64-i128:128-f80:128-n8:16:32:64-S128"
target triple = "x86_64-pc-linux-gnu"

@ett_bacapp_tag = internal global i32 0, align 4
@ASHRAE_Reserved_Fmt = internal constant [32 x i8] c"(%d) Reserved for Use by ASHRAE\00", align 16
@Vendor_Proprietary_Fmt = internal constant [30 x i8] c"(%d) Vendor Proprietary Value\00", align 16
@.str.2625 = private unnamed_addr constant [11 x i8] c"%s %s (%u)\00", align 1
@.str.2626 = private unnamed_addr constant [6 x i8] c"%s %u\00", align 1
@.str.2627 = private unnamed_addr constant [29 x i8] c"%s - %u octets (enumeration)\00", align 1

; Function Attrs: null_pointer_is_valid sspstrong uwtable
define internal ptr @val_to_split_str(i32 noundef %0, i32 noundef %1, ptr noundef %2, ptr noundef %3, ptr noundef %4) #0 {
  %6 = alloca ptr, align 8
  %7 = alloca i32, align 4
  %8 = alloca i32, align 4
  %9 = alloca ptr, align 8
  %10 = alloca ptr, align 8
  %11 = alloca ptr, align 8
  store i32 %0, ptr %7, align 4
  store i32 %1, ptr %8, align 4
  store ptr %2, ptr %9, align 8
  store ptr %3, ptr %10, align 8
  store ptr %4, ptr %11, align 8
  %12 = load i32, ptr %7, align 4
  %13 = load i32, ptr %8, align 4
  %14 = icmp ult i32 %12, %13
  br i1 %14, label %15, label %20

15:                                               ; preds = %5
  %16 = load i32, ptr %7, align 4
  %17 = load ptr, ptr %9, align 8
  %18 = load ptr, ptr %10, align 8
  %19 = call ptr @val_to_str(i32 noundef %16, ptr noundef %17, ptr noundef %18)
  store ptr %19, ptr %6, align 8
  br label %25

20:                                               ; preds = %5
  %21 = load i32, ptr %7, align 4
  %22 = load ptr, ptr %9, align 8
  %23 = load ptr, ptr %11, align 8
  %24 = call ptr @val_to_str(i32 noundef %21, ptr noundef %22, ptr noundef %23)
  store ptr %24, ptr %6, align 8
  br label %25

25:                                               ; preds = %20, %15
  %26 = load ptr, ptr %6, align 8
  ret ptr %26
}

; Function Attrs: null_pointer_is_valid sspstrong uwtable
define internal zeroext i1 @fUnsigned32(ptr noundef %0, i32 noundef %1, i32 noundef %2, ptr noundef %3) #0 {
  %5 = alloca ptr, align 8
  %6 = alloca i32, align 4
  %7 = alloca i32, align 4
  %8 = alloca ptr, align 8
  %9 = alloca i8, align 1
  store ptr %0, ptr %5, align 8
  store i32 %1, ptr %6, align 4
  store i32 %2, ptr %7, align 4
  store ptr %3, ptr %8, align 8
  call void @llvm.lifetime.start.p0(i64 1, ptr %9) #7
  store i8 1, ptr %9, align 1
  %10 = load i32, ptr %7, align 4
  switch i32 %10, label %33 [
    i32 1, label %11
    i32 2, label %17
    i32 3, label %23
    i32 4, label %28
  ]

11:                                               ; preds = %4
  %12 = load ptr, ptr %5, align 8
  %13 = load i32, ptr %6, align 4
  %14 = call zeroext i8 @tvb_get_uint8(ptr noundef %12, i32 noundef %13)
  %15 = zext i8 %14 to i32
  %16 = load ptr, ptr %8, align 8
  store i32 %15, ptr %16, align 4
  br label %34

17:                                               ; preds = %4
  %18 = load ptr, ptr %5, align 8
  %19 = load i32, ptr %6, align 4
  %20 = call zeroext i16 @tvb_get_ntohs(ptr noundef %18, i32 noundef %19)
  %21 = zext i16 %20 to i32
  %22 = load ptr, ptr %8, align 8
  store i32 %21, ptr %22, align 4
  br label %34

23:                                               ; preds = %4
  %24 = load ptr, ptr %5, align 8
  %25 = load i32, ptr %6, align 4
  %26 = call i32 @tvb_get_ntoh24(ptr noundef %24, i32 noundef %25)
  %27 = load ptr, ptr %8, align 8
  store i32 %26, ptr %27, align 4
  br label %34

28:                                               ; preds = %4
  %29 = load ptr, ptr %5, align 8
  %30 = load i32, ptr %6, align 4
  %31 = call i32 @tvb_get_ntohl(ptr noundef %29, i32 noundef %30)
  %32 = load ptr, ptr %8, align 8
  store i32 %31, ptr %32, align 4
  br label %34

33:                                               ; preds = %4
  store i8 0, ptr %9, align 1
  br label %34

34:                                               ; preds = %33, %28, %23, %17, %11
  %35 = load i8, ptr %9, align 1, !range !6, !noundef !7
  %36 = trunc i8 %35 to i1
  call void @llvm.lifetime.end.p0(i64 1, ptr %9) #7
  ret i1 %36
}

; Function Attrs: null_pointer_is_valid sspstrong uwtable
define internal i32 @fTagHeader(ptr noundef %0, ptr noundef %1, i32 noundef %2, ptr noundef %3, ptr noundef %4, ptr noundef %5) #0 {
  %7 = alloca ptr, align 8
  %8 = alloca ptr, align 8
  %9 = alloca i32, align 4
  %10 = alloca ptr, align 8
  %11 = alloca ptr, align 8
  %12 = alloca ptr, align 8
  store ptr %0, ptr %7, align 8
  store ptr %1, ptr %8, align 8
  store i32 %2, ptr %9, align 4
  store ptr %3, ptr %10, align 8
  store ptr %4, ptr %11, align 8
  store ptr %5, ptr %12, align 8
  %13 = load ptr, ptr %7, align 8
  %14 = load ptr, ptr %8, align 8
  %15 = load i32, ptr %9, align 4
  %16 = load ptr, ptr %10, align 8
  %17 = load ptr, ptr %11, align 8
  %18 = load ptr, ptr %12, align 8
  %19 = call i32 @fTagHeaderTree(ptr noundef %13, ptr noundef %14, ptr noundef null, i32 noundef %15, ptr noundef %16, ptr noundef %17, ptr noundef %18)
  ret i32 %19
}

; Function Attrs: null_pointer_is_valid sspstrong uwtable
define internal i32 @fEnumeratedTagSplit(ptr noundef %0, ptr noundef %1, ptr noundef %2, i32 noundef %3, ptr noundef %4, ptr noundef %5, i32 noundef %6) #0 {
  %8 = alloca ptr, align 8
  %9 = alloca ptr, align 8
  %10 = alloca ptr, align 8
  %11 = alloca i32, align 4
  %12 = alloca ptr, align 8
  %13 = alloca ptr, align 8
  %14 = alloca i32, align 4
  %15 = alloca i32, align 4
  %16 = alloca i8, align 1
  %17 = alloca i8, align 1
  %18 = alloca i32, align 4
  %19 = alloca i32, align 4
  %20 = alloca ptr, align 8
  store ptr %0, ptr %8, align 8
  store ptr %1, ptr %9, align 8
  store ptr %2, ptr %10, align 8
  store i32 %3, ptr %11, align 4
  store ptr %4, ptr %12, align 8
  store ptr %5, ptr %13, align 8
  store i32 %6, ptr %14, align 4
  call void @llvm.lifetime.start.p0(i64 4, ptr %15) #7
  store i32 0, ptr %15, align 4
  call void @llvm.lifetime.start.p0(i64 1, ptr %16) #7
  call void @llvm.lifetime.start.p0(i64 1, ptr %17) #7
  call void @llvm.lifetime.start.p0(i64 4, ptr %18) #7
  call void @llvm.lifetime.start.p0(i64 4, ptr %19) #7
  call void @llvm.lifetime.start.p0(i64 8, ptr %20) #7
  %21 = load ptr, ptr %8, align 8
  %22 = load ptr, ptr %9, align 8
  %23 = load i32, ptr %11, align 4
  %24 = call i32 @fTagHeader(ptr noundef %21, ptr noundef %22, i32 noundef %23, ptr noundef %16, ptr noundef %17, ptr noundef %18)
  store i32 %24, ptr %19, align 4
  %25 = load ptr, ptr %8, align 8
  %26 = load i32, ptr %11, align 4
  %27 = load i32, ptr %19, align 4
  %28 = add i32 %26, %27
  %29 = load i32, ptr %18, align 4
  %30 = call zeroext i1 @fUnsigned32(ptr noundef %25, i32 noundef %28, i32 noundef %29, ptr noundef %15)
  br i1 %30, label %31, label %61

31:                                               ; preds = %7
  %32 = load ptr, ptr %13, align 8
  %33 = icmp ne ptr %32, null
  br i1 %33, label %34, label %49

34:                                               ; preds = %31
  %35 = load ptr, ptr %10, align 8
  %36 = load ptr, ptr %8, align 8
  %37 = load i32, ptr %11, align 4
  %38 = load i32, ptr %18, align 4
  %39 = load i32, ptr %19, align 4
  %40 = add i32 %38, %39
  %41 = load i32, ptr @ett_bacapp_tag, align 4
  %42 = load ptr, ptr %12, align 8
  %43 = load i32, ptr %15, align 4
  %44 = load i32, ptr %14, align 4
  %45 = load ptr, ptr %13, align 8
  %46 = call ptr @val_to_split_str(i32 noundef %43, i32 noundef %44, ptr noundef %45, ptr noundef @ASHRAE_Reserved_Fmt, ptr noundef @Vendor_Proprietary_Fmt)
  %47 = load i32, ptr %15, align 4
  %48 = call ptr (ptr, ptr, i32, i32, i32, ptr, ptr, ...) @proto_tree_add_subtree_format(ptr noundef %35, ptr noundef %36, i32 noundef %37, i32 noundef %40, i32 noundef %41, ptr noundef null, ptr noundef @.str.2625, ptr noundef %42, ptr noundef %46, i32 noundef %47)
  store ptr %48, ptr %20, align 8
  br label %60

49:                                               ; preds = %31
  %50 = load ptr, ptr %10, align 8
  %51 = load ptr, ptr %8, align 8
  %52 = load i32, ptr %11, align 4
  %53 = load i32, ptr %18, align 4
  %54 = load i32, ptr %19, align 4
  %55 = add i32 %53, %54
  %56 = load i32, ptr @ett_bacapp_tag, align 4
  %57 = load ptr, ptr %12, align 8
  %58 = load i32, ptr %15, align 4
  %59 = call ptr (ptr, ptr, i32, i32, i32, ptr, ptr, ...) @proto_tree_add_subtree_format(ptr noundef %50, ptr noundef %51, i32 noundef %52, i32 noundef %55, i32 noundef %56, ptr noundef null, ptr noundef @.str.2626, ptr noundef %57, i32 noundef %58)
  store ptr %59, ptr %20, align 8
  br label %60

60:                                               ; preds = %49, %34
  br label %72

61:                                               ; preds = %7
  %62 = load ptr, ptr %10, align 8
  %63 = load ptr, ptr %8, align 8
  %64 = load i32, ptr %11, align 4
  %65 = load i32, ptr %18, align 4
  %66 = load i32, ptr %19, align 4
  %67 = add i32 %65, %66
  %68 = load i32, ptr @ett_bacapp_tag, align 4
  %69 = load ptr, ptr %12, align 8
  %70 = load i32, ptr %18, align 4
  %71 = call ptr (ptr, ptr, i32, i32, i32, ptr, ptr, ...) @proto_tree_add_subtree_format(ptr noundef %62, ptr noundef %63, i32 noundef %64, i32 noundef %67, i32 noundef %68, ptr noundef null, ptr noundef @.str.2627, ptr noundef %69, i32 noundef %70)
  store ptr %71, ptr %20, align 8
  br label %72

72:                                               ; preds = %61, %60
  %73 = load ptr, ptr %8, align 8
  %74 = load ptr, ptr %9, align 8
  %75 = load ptr, ptr %20, align 8
  %76 = load i32, ptr %11, align 4
  %77 = call i32 @fTagHeaderTree(ptr noundef %73, ptr noundef %74, ptr noundef %75, i32 noundef %76, ptr noundef %16, ptr noundef %17, ptr noundef %18)
  %78 = load i32, ptr %11, align 4
  %79 = load i32, ptr %19, align 4
  %80 = add i32 %78, %79
  %81 = load i32, ptr %18, align 4
  %82 = add i32 %80, %81
  call void @llvm.lifetime.end.p0(i64 8, ptr %20) #7
  call void @llvm.lifetime.end.p0(i64 4, ptr %19) #7
  call void @llvm.lifetime.end.p0(i64 4, ptr %18) #7
  call void @llvm.lifetime.end.p0(i64 1, ptr %17) #7
  call void @llvm.lifetime.end.p0(i64 1, ptr %16) #7
  call void @llvm.lifetime.end.p0(i64 4, ptr %15) #7
  ret i32 %82
}