; Function Attrs: null_pointer_is_valid sspstrong uwtable
define internal fastcc i32 @fEnumeratedTagSplit(ptr noundef nonnull %0, ptr noundef %1, ptr noundef %2, i32 noundef %3, ptr noundef %4, ptr noundef %5, i32 noundef range(i32 0, 513) %6) unnamed_addr #0 {
  %8 = alloca i8, align 1
  %9 = alloca i8, align 1
  %10 = alloca i32, align 4
  call void @llvm.lifetime.start.p0(i64 1, ptr nonnull %8) #6
  call void @llvm.lifetime.start.p0(i64 1, ptr nonnull %9) #6
  call void @llvm.lifetime.start.p0(i64 4, ptr nonnull %10) #6
  %11 = call fastcc range(i32 1, 8) i32 @fTagHeaderTree(ptr noundef nonnull %0, ptr noundef %1, ptr noundef null, i32 noundef %3, ptr noundef nonnull %8, ptr noundef nonnull %9, ptr noundef nonnull %10)
  %12 = add i32 %11, %3
  %13 = load i32, ptr %10, align 4
  switch i32 %13, label %fUnsigned32.exit [
    i32 1, label %14
    i32 2, label %17
    i32 3, label %20
    i32 4, label %22
  ]

14:                                               ; preds = %7
  %15 = tail call zeroext i8 @tvb_get_uint8(ptr noundef nonnull %0, i32 noundef %12)
  %16 = zext i8 %15 to i32
  br label %24

17:                                               ; preds = %7
  %18 = tail call zeroext i16 @tvb_get_ntohs(ptr noundef nonnull %0, i32 noundef %12)
  %19 = zext i16 %18 to i32
  br label %24

20:                                               ; preds = %7
  %21 = tail call i32 @tvb_get_ntoh24(ptr noundef nonnull %0, i32 noundef %12)
  br label %24

22:                                               ; preds = %7
  %23 = tail call i32 @tvb_get_ntohl(ptr noundef nonnull %0, i32 noundef %12)
  br label %24

24:                                               ; preds = %22, %20, %17, %14
  %.032.ph = phi i32 [ %16, %14 ], [ %19, %17 ], [ %21, %20 ], [ %23, %22 ]
  %.not = icmp eq ptr %5, null
  %25 = add nuw nsw i32 %13, %11
  %26 = load i32, ptr @ett_bacapp_tag, align 4
  br i1 %.not, label %31, label %27

27:                                               ; preds = %24
  %28 = icmp ult i32 %.032.ph, %6
  %ASHRAE_Reserved_Fmt.Vendor_Proprietary_Fmt.i = select i1 %28, ptr @ASHRAE_Reserved_Fmt, ptr @Vendor_Proprietary_Fmt
  %29 = tail call ptr @val_to_str(i32 noundef %.032.ph, ptr noundef nonnull %5, ptr noundef nonnull %ASHRAE_Reserved_Fmt.Vendor_Proprietary_Fmt.i)
  %30 = tail call ptr (ptr, ptr, i32, i32, i32, ptr, ptr, ...) @proto_tree_add_subtree_format(ptr noundef %2, ptr noundef nonnull %0, i32 noundef %3, i32 noundef %25, i32 noundef %26, ptr noundef null, ptr noundef nonnull @.str.2625, ptr noundef %4, ptr noundef %29, i32 noundef %.032.ph)
  br label %36

31:                                               ; preds = %24
  %32 = tail call ptr (ptr, ptr, i32, i32, i32, ptr, ptr, ...) @proto_tree_add_subtree_format(ptr noundef %2, ptr noundef nonnull %0, i32 noundef %3, i32 noundef %25, i32 noundef %26, ptr noundef null, ptr noundef nonnull @.str.2626, ptr noundef %4, i32 noundef %.032.ph)
  br label %36

fUnsigned32.exit:                                 ; preds = %7
  %33 = add i32 %13, %11
  %34 = load i32, ptr @ett_bacapp_tag, align 4
  %35 = tail call ptr (ptr, ptr, i32, i32, i32, ptr, ptr, ...) @proto_tree_add_subtree_format(ptr noundef %2, ptr noundef nonnull %0, i32 noundef %3, i32 noundef %33, i32 noundef %34, ptr noundef null, ptr noundef nonnull @.str.2627, ptr noundef %4, i32 noundef %13)
  br label %36

36:                                               ; preds = %27, %31, %fUnsigned32.exit
  %.0 = phi ptr [ %30, %27 ], [ %32, %31 ], [ %35, %fUnsigned32.exit ]
  %37 = call fastcc i32 @fTagHeaderTree(ptr noundef %0, ptr noundef %1, ptr noundef %.0, i32 noundef %3, ptr noundef nonnull %8, ptr noundef nonnull %9, ptr noundef nonnull %10)
  %38 = load i32, ptr %10, align 4
  %39 = add i32 %38, %12
  call void @llvm.lifetime.end.p0(i64 4, ptr nonnull %10) #6
  call void @llvm.lifetime.end.p0(i64 1, ptr nonnull %9) #6
  call void @llvm.lifetime.end.p0(i64 1, ptr nonnull %8) #6
  ret i32 %39
}